; Function Attrs: nounwind uwtable
define nonnull ptr @lv_timer_create(ptr noundef %0, i32 noundef %1, ptr noundef %2) local_unnamed_addr #0 {
  %4 = tail call ptr @lv_ll_ins_head(ptr noundef nonnull getelementptr inbounds nuw (i8, ptr @lv_global, i64 216)) #8
  %.not = icmp eq ptr %4, null
  br i1 %.not, label %.preheader, label %5

.preheader:                                       ; preds = %3, %.preheader
  br label %.preheader

5:                                                ; preds = %3
  store i32 %1, ptr %4, align 8, !tbaa !31
  %6 = getelementptr inbounds nuw i8, ptr %4, i64 8
  store ptr %0, ptr %6, align 8, !tbaa !33
  %7 = getelementptr inbounds nuw i8, ptr %4, i64 24
  store i32 -1, ptr %7, align 8, !tbaa !32
  %8 = getelementptr inbounds nuw i8, ptr %4, i64 28
  %9 = load i8, ptr %8, align 4
  %10 = and i8 %9, -2
  store i8 %10, ptr %8, align 4
  %11 = tail call i32 @lv_tick_get() #8
  %12 = getelementptr inbounds nuw i8, ptr %4, i64 4
  store i32 %11, ptr %12, align 4, !tbaa !29
  %13 = getelementptr inbounds nuw i8, ptr %4, i64 16
  store ptr %2, ptr %13, align 8, !tbaa !43
  %14 = load i8, ptr %8, align 4
  %15 = or i8 %14, 2
  store i8 %15, ptr %8, align 4
  store i8 1, ptr getelementptr inbounds nuw (i8, ptr @lv_global, i64 243), align 1, !tbaa !44
  store i32 0, ptr getelementptr inbounds nuw (i8, ptr @lv_global, i64 244), align 4, !tbaa !19
  %16 = load ptr, ptr getelementptr inbounds nuw (i8, ptr @lv_global, i64 272), align 8, !tbaa !20
  %.not.i = icmp eq ptr %16, null
  br i1 %.not.i, label %lv_timer_handler_resume.exit, label %17

17:                                               ; preds = %5
  %18 = load ptr, ptr getelementptr inbounds nuw (i8, ptr @lv_global, i64 280), align 8, !tbaa !21
  tail call void %16(ptr noundef %18) #8
  br label %lv_timer_handler_resume.exit

lv_timer_handler_resume.exit:                     ; preds = %5, %17
  ret ptr %4
}